target datalayout = "e-m:e-p270:32:32-p271:32:32-p272:64:64-i64:64-i128:128-f80:128-n8:16:32:64-S128"
target triple = "x86_64-pc-linux-gnu"

%struct.VP8Decoder = type { i32, i32, ptr, %struct.VP8BitReader, i32, %struct.VP8FrameHeader, %struct.VP8PictureHeader, %struct.VP8FilterHeader, %struct.VP8SegmentHeader, %struct.WebPWorker, i32, i32, i32, %struct.VP8ThreadContext, i32, i32, i32, i32, i32, i32, i32, [8 x %struct.VP8BitReader], i32, %struct.VP8Random, [4 x %struct.VP8QuantMatrix], %struct.VP8Proba, i32, i8, ptr, [4 x i8], ptr, ptr, ptr, ptr, ptr, ptr, ptr, i32, i32, ptr, i64, i32, i32, ptr, i32, [4 x [2 x %struct.VP8FInfo]], ptr, ptr, i64, i32, ptr, ptr, ptr, i32 }
%struct.VP8BitReader = type { i64, i32, i32, ptr, ptr, ptr, i32 }
%struct.VP8FrameHeader = type { i8, i8, i8, i32 }
%struct.VP8PictureHeader = type { i16, i16, i8, i8, i8, i8 }
%struct.VP8FilterHeader = type { i32, i32, i32, i32, [4 x i32], [4 x i32] }
%struct.VP8SegmentHeader = type { i32, i32, i32, [4 x i8], [4 x i8] }
%struct.WebPWorker = type { ptr, i32, ptr, ptr, ptr, i32 }
%struct.VP8ThreadContext = type { i32, i32, i32, ptr, ptr, %struct.VP8Io }
%struct.VP8Io = type { i32, i32, i32, i32, i32, ptr, ptr, ptr, i32, i32, ptr, ptr, ptr, ptr, i32, i64, ptr, i32, i32, i32, i32, i32, i32, i32, i32, i32, ptr }
%struct.VP8Random = type { i32, i32, [55 x i32], i32 }
%struct.VP8QuantMatrix = type { [2 x i32], [2 x i32], [2 x i32], i32, i32 }
%struct.VP8Proba = type { [3 x i8], [4 x [8 x %struct.VP8BandProbas]], [4 x [17 x ptr]] }
%struct.VP8BandProbas = type { [3 x [11 x i8]] }
%struct.VP8FInfo = type { i8, i8, i8, i8 }

; Function Attrs: nounwind uwtable
define hidden i32 @VP8Status(ptr noundef %0) #0 {
  %2 = alloca i32, align 4
  %3 = alloca ptr, align 8
  store ptr %0, ptr %3, align 8, !tbaa !10
  %4 = load ptr, ptr %3, align 8, !tbaa !10
  %5 = icmp ne ptr %4, null
  br i1 %5, label %7, label %6

6:                                                ; preds = %1
  store i32 2, ptr %2, align 4
  br label %11

7:                                                ; preds = %1
  %8 = load ptr, ptr %3, align 8, !tbaa !10
  %9 = getelementptr inbounds nuw %struct.VP8Decoder, ptr %8, i32 0, i32 0
  %10 = load i32, ptr %9, align 8, !tbaa !31
  store i32 %10, ptr %2, align 4
  br label %11

11:                                               ; preds = %7, %6
  %12 = load i32, ptr %2, align 4
  ret i32 %12
}