; Function Attrs: mustprogress nofree norecurse nosync nounwind willreturn memory(argmem: read) uwtable
define hidden i32 @VP8Status(ptr noundef readonly captures(address_is_null) %0) local_unnamed_addr #6 {
  %.not = icmp eq ptr %0, null
  br i1 %.not, label %4, label %2

2:                                                ; preds = %1
  %3 = load i32, ptr %0, align 8, !tbaa !3
  br label %4

4:                                                ; preds = %1, %2
  %.0 = phi i32 [ %3, %2 ], [ 2, %1 ]
  ret i32 %.0
}